target datalayout = "e-m:e-p270:32:32-p271:32:32-p272:64:64-i64:64-i128:128-f80:128-n8:16:32:64-S128"
target triple = "x86_64-pc-linux-gnu"

%struct.RBignum = type { %struct.RBasic, %union.anon }
%struct.RBasic = type { i64, i64 }
%union.anon = type { %struct.anon, [8 x i8] }
%struct.anon = type { i64, ptr }

; Function Attrs: inlinehint nounwind sspstrong willreturn memory(read) uwtable
define internal i64 @RB_FL_TEST_RAW(i64 noundef %0, i64 noundef %1) #8 {
  %3 = alloca i64, align 8
  %4 = alloca i64, align 8
  store i64 %0, ptr %3, align 8, !tbaa !7
  store i64 %1, ptr %4, align 8, !tbaa !7
  %5 = load i64, ptr %3, align 8, !tbaa !7
  %6 = inttoptr i64 %5 to ptr
  %7 = getelementptr inbounds nuw %struct.RBasic, ptr %6, i32 0, i32 0
  %8 = load i64, ptr %7, align 8, !tbaa !17
  %9 = load i64, ptr %4, align 8, !tbaa !7
  %10 = and i64 %8, %9
  ret i64 %10
}

; Function Attrs: inlinehint nounwind sspstrong uwtable
define internal zeroext i1 @BIGNUM_EMBED_P(i64 noundef %0) #2 {
  %2 = alloca i64, align 8
  store i64 %0, ptr %2, align 8, !tbaa !7
  %3 = load i64, ptr %2, align 8, !tbaa !7
  %4 = call i64 @RB_FL_TEST_RAW(i64 noundef %3, i64 noundef 16384) #26
  %5 = icmp ne i64 %4, 0
  ret i1 %5
}

; Function Attrs: inlinehint nounwind sspstrong willreturn memory(none) uwtable
define internal i64 @rbimpl_fix2long_by_idiv(i64 noundef %0) #6 {
  %2 = alloca i64, align 8
  %3 = alloca i64, align 8
  %4 = alloca i64, align 8
  %5 = alloca i64, align 8
  store i64 %0, ptr %2, align 8, !tbaa !7
  call void @llvm.lifetime.start.p0(i64 8, ptr %3) #24
  %6 = load i64, ptr %2, align 8, !tbaa !7
  %7 = sub i64 %6, 1
  store i64 %7, ptr %3, align 8, !tbaa !7
  call void @llvm.lifetime.start.p0(i64 8, ptr %4) #24
  %8 = load i64, ptr %3, align 8, !tbaa !7
  %9 = sdiv i64 %8, 2
  store i64 %9, ptr %4, align 8, !tbaa !7
  call void @llvm.lifetime.start.p0(i64 8, ptr %5) #24
  %10 = load i64, ptr %4, align 8, !tbaa !7
  store i64 %10, ptr %5, align 8, !tbaa !7
  %11 = load i64, ptr %5, align 8, !tbaa !7
  call void @llvm.lifetime.end.p0(i64 8, ptr %5) #24
  call void @llvm.lifetime.end.p0(i64 8, ptr %4) #24
  call void @llvm.lifetime.end.p0(i64 8, ptr %3) #24
  ret i64 %11
}

; Function Attrs: inlinehint nounwind sspstrong willreturn memory(none) uwtable
define internal i64 @rbimpl_fix2long_by_shift(i64 noundef %0) #6 {
  %2 = alloca i64, align 8
  %3 = alloca i64, align 8
  %4 = alloca i64, align 8
  %5 = alloca i64, align 8
  store i64 %0, ptr %2, align 8, !tbaa !7
  call void @llvm.lifetime.start.p0(i64 8, ptr %3) #24
  %6 = load i64, ptr %2, align 8, !tbaa !7
  store i64 %6, ptr %3, align 8, !tbaa !7
  call void @llvm.lifetime.start.p0(i64 8, ptr %4) #24
  %7 = load i64, ptr %3, align 8, !tbaa !7
  %8 = ashr i64 %7, 1
  store i64 %8, ptr %4, align 8, !tbaa !7
  call void @llvm.lifetime.start.p0(i64 8, ptr %5) #24
  %9 = load i64, ptr %4, align 8, !tbaa !7
  store i64 %9, ptr %5, align 8, !tbaa !7
  %10 = load i64, ptr %5, align 8, !tbaa !7
  call void @llvm.lifetime.end.p0(i64 8, ptr %5) #24
  call void @llvm.lifetime.end.p0(i64 8, ptr %4) #24
  call void @llvm.lifetime.end.p0(i64 8, ptr %3) #24
  ret i64 %10
}

; Function Attrs: inlinehint nounwind sspstrong willreturn memory(none) uwtable
define internal zeroext i1 @rbimpl_right_shift_is_arithmetic_p() #6 {
  ret i1 true
}

; Function Attrs: inlinehint nounwind sspstrong uwtable
define internal i64 @BIGNUM_LEN(i64 noundef %0) #2 {
  %2 = alloca i64, align 8
  %3 = alloca i64, align 8
  %4 = alloca i64, align 8
  store i64 %0, ptr %3, align 8, !tbaa !7
  %5 = load i64, ptr %3, align 8, !tbaa !7
  %6 = call zeroext i1 @BIGNUM_EMBED_P(i64 noundef %5)
  br i1 %6, label %13, label %7

7:                                                ; preds = %1
  %8 = load i64, ptr %3, align 8, !tbaa !7
  %9 = inttoptr i64 %8 to ptr
  %10 = getelementptr inbounds nuw %struct.RBignum, ptr %9, i32 0, i32 1
  %11 = getelementptr inbounds nuw %struct.anon, ptr %10, i32 0, i32 0
  %12 = load i64, ptr %11, align 8, !tbaa !16
  store i64 %12, ptr %2, align 8
  br label %23

13:                                               ; preds = %1
  call void @llvm.lifetime.start.p0(i64 8, ptr %4) #24
  %14 = load i64, ptr %3, align 8, !tbaa !7
  %15 = inttoptr i64 %14 to ptr
  %16 = getelementptr inbounds nuw %struct.RBasic, ptr %15, i32 0, i32 0
  %17 = load i64, ptr %16, align 8, !tbaa !17
  store i64 %17, ptr %4, align 8, !tbaa !7
  %18 = load i64, ptr %4, align 8, !tbaa !7
  %19 = and i64 %18, 229376
  store i64 %19, ptr %4, align 8, !tbaa !7
  %20 = load i64, ptr %4, align 8, !tbaa !7
  %21 = lshr i64 %20, 15
  store i64 %21, ptr %4, align 8, !tbaa !7
  %22 = load i64, ptr %4, align 8, !tbaa !7
  store i64 %22, ptr %2, align 8
  call void @llvm.lifetime.end.p0(i64 8, ptr %4) #24
  br label %23

23:                                               ; preds = %13, %7
  %24 = load i64, ptr %2, align 8
  ret i64 %24
}

; Function Attrs: inlinehint nounwind sspstrong uwtable
define internal ptr @BIGNUM_DIGITS(i64 noundef %0) #2 {
  %2 = alloca ptr, align 8
  %3 = alloca i64, align 8
  store i64 %0, ptr %3, align 8, !tbaa !7
  %4 = load i64, ptr %3, align 8, !tbaa !7
  %5 = call zeroext i1 @BIGNUM_EMBED_P(i64 noundef %4)
  br i1 %5, label %6, label %11

6:                                                ; preds = %1
  %7 = load i64, ptr %3, align 8, !tbaa !7
  %8 = inttoptr i64 %7 to ptr
  %9 = getelementptr inbounds nuw %struct.RBignum, ptr %8, i32 0, i32 1
  %10 = getelementptr inbounds [6 x i32], ptr %9, i64 0, i64 0
  store ptr %10, ptr %2, align 8
  br label %17

11:                                               ; preds = %1
  %12 = load i64, ptr %3, align 8, !tbaa !7
  %13 = inttoptr i64 %12 to ptr
  %14 = getelementptr inbounds nuw %struct.RBignum, ptr %13, i32 0, i32 1
  %15 = getelementptr inbounds nuw %struct.anon, ptr %14, i32 0, i32 1
  %16 = load ptr, ptr %15, align 8, !tbaa !16
  store ptr %16, ptr %2, align 8
  br label %17

17:                                               ; preds = %11, %6
  %18 = load ptr, ptr %2, align 8
  ret ptr %18
}

; Function Attrs: inlinehint nounwind sspstrong willreturn memory(none) uwtable
define internal i64 @rb_fix2long(i64 noundef %0) #6 {
  %2 = alloca i64, align 8
  %3 = alloca i64, align 8
  store i64 %0, ptr %3, align 8, !tbaa !7
  %4 = call zeroext i1 @rbimpl_right_shift_is_arithmetic_p() #30
  br i1 %4, label %5, label %8

5:                                                ; preds = %1
  %6 = load i64, ptr %3, align 8, !tbaa !7
  %7 = call i64 @rbimpl_fix2long_by_shift(i64 noundef %6) #30
  store i64 %7, ptr %2, align 8
  br label %11

8:                                                ; preds = %1
  %9 = load i64, ptr %3, align 8, !tbaa !7
  %10 = call i64 @rbimpl_fix2long_by_idiv(i64 noundef %9) #30
  store i64 %10, ptr %2, align 8
  br label %11

11:                                               ; preds = %8, %5
  %12 = load i64, ptr %2, align 8
  ret i64 %12
}

; Function Attrs: inlinehint nounwind sspstrong willreturn memory(none) uwtable
define internal zeroext i1 @RB_FIXNUM_P(i64 noundef %0) #6 {
  %2 = alloca i64, align 8
  store i64 %0, ptr %2, align 8, !tbaa !7
  %3 = load i64, ptr %2, align 8, !tbaa !7
  %4 = and i64 %3, 1
  %5 = icmp ne i64 %4, 0
  ret i1 %5
}

; Function Attrs: nounwind sspstrong uwtable
define dso_local i32 @rb_absint_singlebit_p(i64 noundef %0) #0 {
  %2 = alloca i32, align 4
  %3 = alloca i64, align 8
  %4 = alloca ptr, align 8
  %5 = alloca ptr, align 8
  %6 = alloca [2 x i32], align 4
  %7 = alloca i32, align 4
  %8 = alloca i64, align 8
  %9 = alloca i32, align 4
  %10 = alloca i32, align 4
  store i64 %0, ptr %3, align 8, !tbaa !7
  call void @llvm.lifetime.start.p0(i64 8, ptr %4) #24
  call void @llvm.lifetime.start.p0(i64 8, ptr %5) #24
  call void @llvm.lifetime.start.p0(i64 8, ptr %6) #24
  call void @llvm.lifetime.start.p0(i64 4, ptr %7) #24
  %11 = load i64, ptr %3, align 8, !tbaa !7
  %12 = call i64 @rb_to_int(i64 noundef %11)
  store i64 %12, ptr %3, align 8, !tbaa !7
  %13 = load i64, ptr %3, align 8, !tbaa !7
  %14 = call zeroext i1 @RB_FIXNUM_P(i64 noundef %13) #30
  br i1 %14, label %15, label %43

15:                                               ; preds = %1
  call void @llvm.lifetime.start.p0(i64 8, ptr %8) #24
  %16 = load i64, ptr %3, align 8, !tbaa !7
  %17 = call i64 @rb_fix2long(i64 noundef %16) #30
  store i64 %17, ptr %8, align 8, !tbaa !7
  %18 = load i64, ptr %8, align 8, !tbaa !7
  %19 = icmp slt i64 %18, 0
  br i1 %19, label %20, label %23

20:                                               ; preds = %15
  %21 = load i64, ptr %8, align 8, !tbaa !7
  %22 = sub i64 0, %21
  store i64 %22, ptr %8, align 8, !tbaa !7
  br label %23

23:                                               ; preds = %20, %15
  call void @llvm.lifetime.start.p0(i64 4, ptr %9) #24
  store i32 0, ptr %9, align 4, !tbaa !19
  br label %24

24:                                               ; preds = %36, %23
  %25 = load i32, ptr %9, align 4, !tbaa !19
  %26 = icmp slt i32 %25, 2
  br i1 %26, label %27, label %39

27:                                               ; preds = %24
  %28 = load i64, ptr %8, align 8, !tbaa !7
  %29 = and i64 %28, 4294967295
  %30 = trunc i64 %29 to i32
  %31 = load i32, ptr %9, align 4, !tbaa !19
  %32 = sext i32 %31 to i64
  %33 = getelementptr [2 x i32], ptr %6, i64 0, i64 %32
  store i32 %30, ptr %33, align 4, !tbaa !19
  %34 = load i64, ptr %8, align 8, !tbaa !7
  %35 = ashr i64 %34, 32
  store i64 %35, ptr %8, align 8, !tbaa !7
  br label %36

36:                                               ; preds = %27
  %37 = load i32, ptr %9, align 4, !tbaa !19
  %38 = add i32 %37, 1
  store i32 %38, ptr %9, align 4, !tbaa !19
  br label %24, !llvm.loop !80

39:                                               ; preds = %24
  call void @llvm.lifetime.end.p0(i64 4, ptr %9) #24
  %40 = getelementptr inbounds [2 x i32], ptr %6, i64 0, i64 0
  store ptr %40, ptr %4, align 8, !tbaa !24
  %41 = getelementptr inbounds [2 x i32], ptr %6, i64 0, i64 0
  %42 = getelementptr i32, ptr %41, i64 2
  store ptr %42, ptr %5, align 8, !tbaa !24
  call void @llvm.lifetime.end.p0(i64 8, ptr %8) #24
  br label %50

43:                                               ; preds = %1
  %44 = load i64, ptr %3, align 8, !tbaa !7
  %45 = call ptr @BIGNUM_DIGITS(i64 noundef %44)
  store ptr %45, ptr %4, align 8, !tbaa !24
  %46 = load ptr, ptr %4, align 8, !tbaa !24
  %47 = load i64, ptr %3, align 8, !tbaa !7
  %48 = call i64 @BIGNUM_LEN(i64 noundef %47)
  %49 = getelementptr i32, ptr %46, i64 %48
  store ptr %49, ptr %5, align 8, !tbaa !24
  br label %50

50:                                               ; preds = %43, %39
  br label %51

51:                                               ; preds = %62, %50
  %52 = load ptr, ptr %4, align 8, !tbaa !24
  %53 = load ptr, ptr %5, align 8, !tbaa !24
  %54 = icmp ult ptr %52, %53
  br i1 %54, label %55, label %60

55:                                               ; preds = %51
  %56 = load ptr, ptr %5, align 8, !tbaa !24
  %57 = getelementptr i32, ptr %56, i64 -1
  %58 = load i32, ptr %57, align 4, !tbaa !19
  %59 = icmp eq i32 %58, 0
  br label %60

60:                                               ; preds = %55, %51
  %61 = phi i1 [ false, %51 ], [ %59, %55 ]
  br i1 %61, label %62, label %65

62:                                               ; preds = %60
  %63 = load ptr, ptr %5, align 8, !tbaa !24
  %64 = getelementptr i32, ptr %63, i32 -1
  store ptr %64, ptr %5, align 8, !tbaa !24
  br label %51, !llvm.loop !81

65:                                               ; preds = %60
  br label %66

66:                                               ; preds = %77, %65
  %67 = load ptr, ptr %4, align 8, !tbaa !24
  %68 = load ptr, ptr %5, align 8, !tbaa !24
  %69 = icmp ult ptr %67, %68
  br i1 %69, label %70, label %75

70:                                               ; preds = %66
  %71 = load ptr, ptr %4, align 8, !tbaa !24
  %72 = getelementptr i32, ptr %71, i64 0
  %73 = load i32, ptr %72, align 4, !tbaa !19
  %74 = icmp eq i32 %73, 0
  br label %75

75:                                               ; preds = %70, %66
  %76 = phi i1 [ false, %66 ], [ %74, %70 ]
  br i1 %76, label %77, label %80

77:                                               ; preds = %75
  %78 = load ptr, ptr %4, align 8, !tbaa !24
  %79 = getelementptr i32, ptr %78, i32 1
  store ptr %79, ptr %4, align 8, !tbaa !24
  br label %66, !llvm.loop !82

80:                                               ; preds = %75
  %81 = load ptr, ptr %4, align 8, !tbaa !24
  %82 = load ptr, ptr %5, align 8, !tbaa !24
  %83 = icmp eq ptr %81, %82
  br i1 %83, label %84, label %85

84:                                               ; preds = %80
  store i32 0, ptr %2, align 4
  store i32 1, ptr %10, align 4
  br label %100

85:                                               ; preds = %80
  %86 = load ptr, ptr %4, align 8, !tbaa !24
  %87 = load ptr, ptr %5, align 8, !tbaa !24
  %88 = getelementptr i32, ptr %87, i64 -1
  %89 = icmp ne ptr %86, %88
  br i1 %89, label %90, label %91

90:                                               ; preds = %85
  store i32 0, ptr %2, align 4
  store i32 1, ptr %10, align 4
  br label %100

91:                                               ; preds = %85
  %92 = load ptr, ptr %4, align 8, !tbaa !24
  %93 = load i32, ptr %92, align 4, !tbaa !19
  store i32 %93, ptr %7, align 4, !tbaa !19
  %94 = load i32, ptr %7, align 4, !tbaa !19
  %95 = load i32, ptr %7, align 4, !tbaa !19
  %96 = sub i32 %95, 1
  %97 = and i32 %94, %96
  %98 = icmp eq i32 %97, 0
  %99 = zext i1 %98 to i32
  store i32 %99, ptr %2, align 4
  store i32 1, ptr %10, align 4
  br label %100

100:                                              ; preds = %91, %90, %84
  call void @llvm.lifetime.end.p0(i64 4, ptr %7) #24
  call void @llvm.lifetime.end.p0(i64 8, ptr %6) #24
  call void @llvm.lifetime.end.p0(i64 8, ptr %5) #24
  call void @llvm.lifetime.end.p0(i64 8, ptr %4) #24
  %101 = load i32, ptr %2, align 4
  ret i32 %101
}