; Function Attrs: nounwind sspstrong uwtable
define dso_local range(i32 0, 2) i32 @rb_absint_singlebit_p(i64 noundef %0) local_unnamed_addr #0 {
  %2 = alloca [2 x i32], align 4
  call void @llvm.lifetime.start.p0(i64 8, ptr nonnull %2) #27
  %3 = tail call i64 @rb_to_int(i64 noundef %0) #27
  %4 = and i64 %3, 1
  %.not43 = icmp eq i64 %4, 0
  %indvars.iv.sroa.gep59 = getelementptr inbounds nuw i8, ptr %2, i64 4
  br i1 %.not43, label %13, label %5

5:                                                ; preds = %1
  %6 = ashr i64 %3, 1
  %spec.select = tail call i64 @llvm.abs.i64(i64 %6, i1 true)
  br label %7

7:                                                ; preds = %5, %7
  %8 = phi i1 [ true, %5 ], [ false, %7 ]
  %indvars.iv.sroa.phi = phi ptr [ %2, %5 ], [ %indvars.iv.sroa.gep59, %7 ]
  %.144 = phi i64 [ %spec.select, %5 ], [ %10, %7 ]
  %9 = trunc i64 %.144 to i32
  store i32 %9, ptr %indvars.iv.sroa.phi, align 4, !tbaa !18
  %10 = lshr i64 %.144, 32
  br i1 %8, label %7, label %11, !llvm.loop !90

11:                                               ; preds = %7
  %12 = getelementptr inbounds nuw i8, ptr %2, i64 8
  br label %27

13:                                               ; preds = %1
  %14 = inttoptr i64 %3 to ptr
  %15 = load i64, ptr %14, align 8, !tbaa !11
  %16 = and i64 %15, 16384
  %.not.i = icmp eq i64 %16, 0
  br i1 %.not.i, label %17, label %22

17:                                               ; preds = %13
  %18 = getelementptr inbounds nuw i8, ptr %14, i64 24
  %19 = load ptr, ptr %18, align 8, !tbaa !13
  %20 = getelementptr inbounds nuw i8, ptr %14, i64 16
  %21 = load i64, ptr %20, align 8, !tbaa !13
  br label %BIGNUM_LEN.exit

22:                                               ; preds = %13
  %23 = getelementptr inbounds nuw i8, ptr %14, i64 16
  %24 = lshr i64 %15, 15
  %25 = and i64 %24, 7
  br label %BIGNUM_LEN.exit

BIGNUM_LEN.exit:                                  ; preds = %17, %22
  %.0.i41 = phi ptr [ %23, %22 ], [ %19, %17 ]
  %.0.i39 = phi i64 [ %25, %22 ], [ %21, %17 ]
  %26 = getelementptr i32, ptr %.0.i41, i64 %.0.i39
  br label %27

27:                                               ; preds = %BIGNUM_LEN.exit, %11
  %.034 = phi ptr [ %2, %11 ], [ %.0.i41, %BIGNUM_LEN.exit ]
  %.032 = phi ptr [ %12, %11 ], [ %26, %BIGNUM_LEN.exit ]
  br label %28

28:                                               ; preds = %30, %27
  %.133 = phi ptr [ %.032, %27 ], [ %31, %30 ]
  %29 = icmp ult ptr %.034, %.133
  br i1 %29, label %30, label %.critedge2

30:                                               ; preds = %28
  %31 = getelementptr i8, ptr %.133, i64 -4
  %32 = load i32, ptr %31, align 4, !tbaa !18
  %33 = icmp eq i32 %32, 0
  br i1 %33, label %28, label %.lr.ph, !llvm.loop !91

.lr.ph:                                           ; preds = %30, %36
  %.13546 = phi ptr [ %37, %36 ], [ %.034, %30 ]
  %34 = load i32, ptr %.13546, align 4, !tbaa !18
  %35 = icmp eq i32 %34, 0
  br i1 %35, label %36, label %.critedge2

36:                                               ; preds = %.lr.ph
  %37 = getelementptr i8, ptr %.13546, i64 4
  %38 = icmp ult ptr %37, %.133
  br i1 %38, label %.lr.ph, label %.critedge2, !llvm.loop !92

.critedge2:                                       ; preds = %28, %.lr.ph, %36
  %.135.lcssa = phi ptr [ %37, %36 ], [ %.13546, %.lr.ph ], [ %.034, %28 ]
  %39 = getelementptr i8, ptr %.133, i64 -4
  %.not = icmp eq ptr %.135.lcssa, %39
  br i1 %.not, label %40, label %45

40:                                               ; preds = %.critedge2
  %41 = load i32, ptr %.135.lcssa, align 4, !tbaa !18
  %42 = call range(i32 0, 33) i32 @llvm.ctpop.i32(i32 %41)
  %43 = icmp samesign ult i32 %42, 2
  %44 = zext i1 %43 to i32
  br label %45

45:                                               ; preds = %.critedge2, %40
  %.031 = phi i32 [ %44, %40 ], [ 0, %.critedge2 ]
  call void @llvm.lifetime.end.p0(i64 8, ptr nonnull %2) #27
  ret i32 %.031
}